#include <math.h>
#include <stdio.h>
#include <stdlib.h>
#include <string.h>

int main(){
int n,k,i,j,a[1000],b[1000];
scanf("%d%d",&n,&k);
for(i=0;i<n;i++){
	scanf("%d",&a[i]);
}
for(i=0;i<n;i++){
	b[i]=a[i];
}
for(j=0;j<n;j++){
	for(i=0;i<n;i++){
		if(i==j){
			continue;
		}else if(k==a[j]+b[i]){
				printf("yes\n");
				break;
			}
		}
		if(k==a[j]+b[i]){
			break;
		}
	}
	if(k!=a[j]+b[i]){
		printf("no\n");
	}
     return 0;

}