; ModuleID = 'source-C-CXX/2/3020.c'
source_filename = "source-C-CXX/2/3020.c"
target datalayout = "e-m:e-p270:32:32-p271:32:32-p272:64:64-i64:64-f80:128-n8:16:32:64-S128"
target triple = "x86_64-pc-linux-gnu"

@.str = private unnamed_addr constant [5 x i8] c"%d%d\00", align 1
@.str.1 = private unnamed_addr constant [3 x i8] c"%d\00", align 1
@str = private unnamed_addr constant [3 x i8] c"no\00", align 1
@str.4 = private unnamed_addr constant [4 x i8] c"yes\00", align 1

; Function Attrs: nofree nounwind sspstrong uwtable
define dso_local i32 @main() local_unnamed_addr #0 {
  %1 = alloca i32, align 4
  %2 = alloca i32, align 4
  %3 = alloca [1000 x i32], align 16
  %4 = bitcast [1000 x i32]* %3 to i8*
  %5 = alloca [1000 x i32], align 16
  %6 = bitcast [1000 x i32]* %5 to i8*
  %7 = bitcast i32* %1 to i8*
  call void @llvm.lifetime.start.p0i8(i64 4, i8* nonnull %7) #5
  %8 = bitcast i32* %2 to i8*
  call void @llvm.lifetime.start.p0i8(i64 4, i8* nonnull %8) #5
  call void @llvm.lifetime.start.p0i8(i64 4000, i8* nonnull %4) #5
  call void @llvm.lifetime.start.p0i8(i64 4000, i8* nonnull %6) #5
  %9 = call i32 (i8*, ...) @__isoc99_scanf(i8* getelementptr inbounds ([5 x i8], [5 x i8]* @.str, i64 0, i64 0), i32* nonnull %1, i32* nonnull %2)
  %10 = load i32, i32* %1, align 4, !tbaa !5
  %11 = icmp sgt i32 %10, 0
  br i1 %11, label %14, label %22

12:                                               ; preds = %14
  %13 = icmp sgt i32 %19, 0
  br i1 %13, label %24, label %22

14:                                               ; preds = %0, %14
  %15 = phi i64 [ %18, %14 ], [ 0, %0 ]
  %16 = getelementptr inbounds [1000 x i32], [1000 x i32]* %3, i64 0, i64 %15
  %17 = call i32 (i8*, ...) @__isoc99_scanf(i8* getelementptr inbounds ([3 x i8], [3 x i8]* @.str.1, i64 0, i64 0), i32* nonnull %16)
  %18 = add nuw nsw i64 %15, 1
  %19 = load i32, i32* %1, align 4, !tbaa !5
  %20 = sext i32 %19 to i64
  %21 = icmp slt i64 %18, %20
  br i1 %21, label %14, label %12, !llvm.loop !9

22:                                               ; preds = %12, %0
  %23 = load i32, i32* %2, align 4, !tbaa !5
  br label %70

24:                                               ; preds = %12
  %25 = zext i32 %19 to i64
  %26 = shl nuw nsw i64 %25, 2
  call void @llvm.memcpy.p0i8.p0i8.i64(i8* nonnull align 16 %6, i8* nonnull align 16 %4, i64 %26, i1 false)
  %27 = load i32, i32* %2, align 4
  br label %28

28:                                               ; preds = %24, %62
  %29 = phi i32 [ %27, %24 ], [ %54, %62 ]
  %30 = phi i64 [ 0, %24 ], [ %63, %62 ]
  %31 = phi i32 [ %19, %24 ], [ %65, %62 ]
  %32 = phi i32 [ 0, %24 ], [ %64, %62 ]
  %33 = getelementptr inbounds [1000 x i32], [1000 x i32]* %3, i64 0, i64 %30
  %34 = icmp sgt i32 %31, 0
  br i1 %34, label %35, label %53

35:                                               ; preds = %28
  %36 = zext i32 %31 to i64
  br label %37

37:                                               ; preds = %35, %50
  %38 = phi i64 [ 0, %35 ], [ %51, %50 ]
  %39 = icmp eq i64 %38, %30
  br i1 %39, label %50, label %40

40:                                               ; preds = %37
  %41 = load i32, i32* %33, align 4, !tbaa !5
  %42 = getelementptr inbounds [1000 x i32], [1000 x i32]* %5, i64 0, i64 %38
  %43 = load i32, i32* %42, align 4, !tbaa !5
  %44 = add nsw i32 %43, %41
  %45 = icmp eq i32 %29, %44
  br i1 %45, label %46, label %50

46:                                               ; preds = %40
  %47 = trunc i64 %38 to i32
  %48 = call i32 @puts(i8* nonnull dereferenceable(1) getelementptr inbounds ([4 x i8], [4 x i8]* @str.4, i64 0, i64 0))
  %49 = load i32, i32* %2, align 4, !tbaa !5
  br label %53

50:                                               ; preds = %40, %37
  %51 = add nuw nsw i64 %38, 1
  %52 = icmp eq i64 %51, %36
  br i1 %52, label %53, label %37, !llvm.loop !11

53:                                               ; preds = %50, %28, %46
  %54 = phi i32 [ %49, %46 ], [ %29, %28 ], [ %29, %50 ]
  %55 = phi i32 [ %47, %46 ], [ 0, %28 ], [ %31, %50 ]
  %56 = load i32, i32* %33, align 4, !tbaa !5
  %57 = zext i32 %55 to i64
  %58 = getelementptr inbounds [1000 x i32], [1000 x i32]* %5, i64 0, i64 %57
  %59 = load i32, i32* %58, align 4, !tbaa !5
  %60 = add nsw i32 %59, %56
  %61 = icmp eq i32 %54, %60
  br i1 %61, label %68, label %62

62:                                               ; preds = %53
  %63 = add nuw nsw i64 %30, 1
  %64 = add nuw nsw i32 %32, 1
  %65 = load i32, i32* %1, align 4, !tbaa !5
  %66 = sext i32 %65 to i64
  %67 = icmp slt i64 %63, %66
  br i1 %67, label %28, label %70, !llvm.loop !12

68:                                               ; preds = %53
  %69 = trunc i64 %30 to i32
  br label %70

70:                                               ; preds = %62, %68, %22
  %71 = phi i32 [ %23, %22 ], [ %54, %68 ], [ %54, %62 ]
  %72 = phi i32 [ 0, %22 ], [ %69, %68 ], [ %64, %62 ]
  %73 = phi i32 [ 0, %22 ], [ %55, %68 ], [ %55, %62 ]
  %74 = zext i32 %72 to i64
  %75 = getelementptr inbounds [1000 x i32], [1000 x i32]* %3, i64 0, i64 %74
  %76 = load i32, i32* %75, align 4, !tbaa !5
  %77 = sext i32 %73 to i64
  %78 = getelementptr inbounds [1000 x i32], [1000 x i32]* %5, i64 0, i64 %77
  %79 = load i32, i32* %78, align 4, !tbaa !5
  %80 = add nsw i32 %79, %76
  %81 = icmp eq i32 %71, %80
  br i1 %81, label %84, label %82

82:                                               ; preds = %70
  %83 = call i32 @puts(i8* nonnull dereferenceable(1) getelementptr inbounds ([3 x i8], [3 x i8]* @str, i64 0, i64 0))
  br label %84

84:                                               ; preds = %82, %70
  call void @llvm.lifetime.end.p0i8(i64 4000, i8* nonnull %6) #5
  call void @llvm.lifetime.end.p0i8(i64 4000, i8* nonnull %4) #5
  call void @llvm.lifetime.end.p0i8(i64 4, i8* nonnull %8) #5
  call void @llvm.lifetime.end.p0i8(i64 4, i8* nonnull %7) #5
  ret i32 0
}

; Function Attrs: argmemonly mustprogress nofree nosync nounwind willreturn
declare void @llvm.lifetime.start.p0i8(i64 immarg, i8* nocapture) #1

; Function Attrs: nofree nounwind
declare noundef i32 @__isoc99_scanf(i8* nocapture noundef readonly, ...) local_unnamed_addr #2

; Function Attrs: argmemonly mustprogress nofree nosync nounwind willreturn
declare void @llvm.lifetime.end.p0i8(i64 immarg, i8* nocapture) #1

; Function Attrs: nofree nounwind
declare noundef i32 @puts(i8* nocapture noundef readonly) local_unnamed_addr #3

; Function Attrs: argmemonly nofree nounwind willreturn
declare void @llvm.memcpy.p0i8.p0i8.i64(i8* noalias nocapture writeonly, i8* noalias nocapture readonly, i64, i1 immarg) #4


!llvm.module.flags = !{!0, !1, !2, !3}
!llvm.ident = !{!4}

!0 = !{i32 1, !"wchar_size", i32 4}
!1 = !{i32 7, !"PIC Level", i32 2}
!2 = !{i32 7, !"PIE Level", i32 2}
!3 = !{i32 7, !"uwtable", i32 1}
!4 = !{!"clang version 13.0.0"}
!5 = !{!6, !6, i64 0}
!6 = !{!"int", !7, i64 0}
!7 = !{!"omnipotent char", !8, i64 0}
!8 = !{!"Simple C/C++ TBAA"}
!9 = distinct !{!9, !10}
!10 = !{!"llvm.loop.mustprogress"}
!11 = distinct !{!11, !10}
!12 = distinct !{!12, !10}
